; ModuleID = '35/1879.c'
source_filename = "35/1879.c"
target datalayout = "e-m:e-p270:32:32-p271:32:32-p272:64:64-i64:64-f80:128-n8:16:32:64-S128"
target triple = "x86_64-pc-linux-gnu"

@.str = private unnamed_addr constant [6 x i8] c"%d,%d\00", align 1
@.str.1 = private unnamed_addr constant [3 x i8] c"%d\00", align 1
@.str.2 = private unnamed_addr constant [6 x i8] c"%d+%d\00", align 1
@.str.3 = private unnamed_addr constant [4 x i8] c"No\0A\00", align 1

; Function Attrs: noinline nounwind uwtable
define dso_local void @main() #0 {
  %1 = alloca i32, align 4
  %2 = alloca i32, align 4
  %3 = alloca [8 x [8 x i32]], align 16
  %4 = alloca i32, align 4
  %5 = alloca i32, align 4
  %6 = alloca i32, align 4
  %7 = alloca i32, align 4
  %8 = alloca i32, align 4
  %9 = alloca i32, align 4
  %10 = call i32 (i8*, ...) @__isoc99_scanf(i8* getelementptr inbounds ([6 x i8], [6 x i8]* @.str, i64 0, i64 0), i32* %1, i32* %2)
  store i32 0, i32* %6, align 4
  br label %11

11:                                               ; preds = %32, %0
  %12 = load i32, i32* %6, align 4
  %13 = load i32, i32* %1, align 4
  %14 = icmp slt i32 %12, %13
  br i1 %14, label %15, label %35

15:                                               ; preds = %11
  store i32 0, i32* %7, align 4
  br label %16

16:                                               ; preds = %28, %15
  %17 = load i32, i32* %7, align 4
  %18 = load i32, i32* %2, align 4
  %19 = icmp slt i32 %17, %18
  br i1 %19, label %20, label %31

20:                                               ; preds = %16
  %21 = load i32, i32* %6, align 4
  %22 = sext i32 %21 to i64
  %23 = getelementptr inbounds [8 x [8 x i32]], [8 x [8 x i32]]* %3, i64 0, i64 %22
  %24 = load i32, i32* %7, align 4
  %25 = sext i32 %24 to i64
  %26 = getelementptr inbounds [8 x i32], [8 x i32]* %23, i64 0, i64 %25
  %27 = call i32 (i8*, ...) @__isoc99_scanf(i8* getelementptr inbounds ([3 x i8], [3 x i8]* @.str.1, i64 0, i64 0), i32* %26)
  br label %28

28:                                               ; preds = %20
  %29 = load i32, i32* %7, align 4
  %30 = add nsw i32 %29, 1
  store i32 %30, i32* %7, align 4
  br label %16

31:                                               ; preds = %16
  br label %32

32:                                               ; preds = %31
  %33 = load i32, i32* %6, align 4
  %34 = add nsw i32 %33, 1
  store i32 %34, i32* %6, align 4
  br label %11

35:                                               ; preds = %11
  store i32 0, i32* %6, align 4
  br label %36

36:                                               ; preds = %160, %35
  %37 = load i32, i32* %6, align 4
  %38 = load i32, i32* %1, align 4
  %39 = icmp slt i32 %37, %38
  br i1 %39, label %40, label %163

40:                                               ; preds = %36
  store i32 0, i32* %7, align 4
  br label %41

41:                                               ; preds = %135, %40
  %42 = load i32, i32* %7, align 4
  %43 = load i32, i32* %2, align 4
  %44 = icmp slt i32 %42, %43
  br i1 %44, label %45, label %138

45:                                               ; preds = %41
  store i32 0, i32* %8, align 4
  %46 = load i32, i32* %6, align 4
  %47 = sext i32 %46 to i64
  %48 = getelementptr inbounds [8 x [8 x i32]], [8 x [8 x i32]]* %3, i64 0, i64 %47
  %49 = load i32, i32* %7, align 4
  %50 = sext i32 %49 to i64
  %51 = getelementptr inbounds [8 x i32], [8 x i32]* %48, i64 0, i64 %50
  %52 = load i32, i32* %51, align 4
  store i32 %52, i32* %4, align 4
  br label %53

53:                                               ; preds = %76, %45
  %54 = load i32, i32* %8, align 4
  %55 = load i32, i32* %1, align 4
  %56 = icmp slt i32 %54, %55
  br i1 %56, label %57, label %79

57:                                               ; preds = %53
  %58 = load i32, i32* %4, align 4
  %59 = load i32, i32* %8, align 4
  %60 = sext i32 %59 to i64
  %61 = getelementptr inbounds [8 x [8 x i32]], [8 x [8 x i32]]* %3, i64 0, i64 %60
  %62 = load i32, i32* %7, align 4
  %63 = sext i32 %62 to i64
  %64 = getelementptr inbounds [8 x i32], [8 x i32]* %61, i64 0, i64 %63
  %65 = load i32, i32* %64, align 4
  %66 = icmp sgt i32 %58, %65
  br i1 %66, label %67, label %75

67:                                               ; preds = %57
  %68 = load i32, i32* %8, align 4
  %69 = sext i32 %68 to i64
  %70 = getelementptr inbounds [8 x [8 x i32]], [8 x [8 x i32]]* %3, i64 0, i64 %69
  %71 = load i32, i32* %7, align 4
  %72 = sext i32 %71 to i64
  %73 = getelementptr inbounds [8 x i32], [8 x i32]* %70, i64 0, i64 %72
  %74 = load i32, i32* %73, align 4
  store i32 %74, i32* %4, align 4
  br label %75

75:                                               ; preds = %67, %57
  br label %76

76:                                               ; preds = %75
  %77 = load i32, i32* %8, align 4
  %78 = add nsw i32 %77, 1
  store i32 %78, i32* %8, align 4
  br label %53

79:                                               ; preds = %53
  store i32 0, i32* %9, align 4
  %80 = load i32, i32* %6, align 4
  %81 = sext i32 %80 to i64
  %82 = getelementptr inbounds [8 x [8 x i32]], [8 x [8 x i32]]* %3, i64 0, i64 %81
  %83 = load i32, i32* %7, align 4
  %84 = sext i32 %83 to i64
  %85 = getelementptr inbounds [8 x i32], [8 x i32]* %82, i64 0, i64 %84
  %86 = load i32, i32* %85, align 4
  store i32 %86, i32* %5, align 4
  br label %87

87:                                               ; preds = %110, %79
  %88 = load i32, i32* %9, align 4
  %89 = load i32, i32* %2, align 4
  %90 = icmp slt i32 %88, %89
  br i1 %90, label %91, label %113

91:                                               ; preds = %87
  %92 = load i32, i32* %5, align 4
  %93 = load i32, i32* %6, align 4
  %94 = sext i32 %93 to i64
  %95 = getelementptr inbounds [8 x [8 x i32]], [8 x [8 x i32]]* %3, i64 0, i64 %94
  %96 = load i32, i32* %9, align 4
  %97 = sext i32 %96 to i64
  %98 = getelementptr inbounds [8 x i32], [8 x i32]* %95, i64 0, i64 %97
  %99 = load i32, i32* %98, align 4
  %100 = icmp slt i32 %92, %99
  br i1 %100, label %101, label %109

101:                                              ; preds = %91
  %102 = load i32, i32* %6, align 4
  %103 = sext i32 %102 to i64
  %104 = getelementptr inbounds [8 x [8 x i32]], [8 x [8 x i32]]* %3, i64 0, i64 %103
  %105 = load i32, i32* %9, align 4
  %106 = sext i32 %105 to i64
  %107 = getelementptr inbounds [8 x i32], [8 x i32]* %104, i64 0, i64 %106
  %108 = load i32, i32* %107, align 4
  store i32 %108, i32* %5, align 4
  br label %109

109:                                              ; preds = %101, %91
  br label %110

110:                                              ; preds = %109
  %111 = load i32, i32* %9, align 4
  %112 = add nsw i32 %111, 1
  store i32 %112, i32* %9, align 4
  br label %87

113:                                              ; preds = %87
  %114 = load i32, i32* %4, align 4
  %115 = load i32, i32* %6, align 4
  %116 = sext i32 %115 to i64
  %117 = getelementptr inbounds [8 x [8 x i32]], [8 x [8 x i32]]* %3, i64 0, i64 %116
  %118 = load i32, i32* %7, align 4
  %119 = sext i32 %118 to i64
  %120 = getelementptr inbounds [8 x i32], [8 x i32]* %117, i64 0, i64 %119
  %121 = load i32, i32* %120, align 4
  %122 = icmp eq i32 %114, %121
  br i1 %122, label %123, label %134

123:                                              ; preds = %113
  %124 = load i32, i32* %5, align 4
  %125 = load i32, i32* %6, align 4
  %126 = sext i32 %125 to i64
  %127 = getelementptr inbounds [8 x [8 x i32]], [8 x [8 x i32]]* %3, i64 0, i64 %126
  %128 = load i32, i32* %7, align 4
  %129 = sext i32 %128 to i64
  %130 = getelementptr inbounds [8 x i32], [8 x i32]* %127, i64 0, i64 %129
  %131 = load i32, i32* %130, align 4
  %132 = icmp eq i32 %124, %131
  br i1 %132, label %133, label %134

133:                                              ; preds = %123
  br label %138

134:                                              ; preds = %123, %113
  br label %135

135:                                              ; preds = %134
  %136 = load i32, i32* %7, align 4
  %137 = add nsw i32 %136, 1
  store i32 %137, i32* %7, align 4
  br label %41

138:                                              ; preds = %133, %41
  %139 = load i32, i32* %4, align 4
  %140 = load i32, i32* %6, align 4
  %141 = sext i32 %140 to i64
  %142 = getelementptr inbounds [8 x [8 x i32]], [8 x [8 x i32]]* %3, i64 0, i64 %141
  %143 = load i32, i32* %7, align 4
  %144 = sext i32 %143 to i64
  %145 = getelementptr inbounds [8 x i32], [8 x i32]* %142, i64 0, i64 %144
  %146 = load i32, i32* %145, align 4
  %147 = icmp eq i32 %139, %146
  br i1 %147, label %148, label %159

148:                                              ; preds = %138
  %149 = load i32, i32* %5, align 4
  %150 = load i32, i32* %6, align 4
  %151 = sext i32 %150 to i64
  %152 = getelementptr inbounds [8 x [8 x i32]], [8 x [8 x i32]]* %3, i64 0, i64 %151
  %153 = load i32, i32* %7, align 4
  %154 = sext i32 %153 to i64
  %155 = getelementptr inbounds [8 x i32], [8 x i32]* %152, i64 0, i64 %154
  %156 = load i32, i32* %155, align 4
  %157 = icmp eq i32 %149, %156
  br i1 %157, label %158, label %159

158:                                              ; preds = %148
  br label %163

159:                                              ; preds = %148, %138
  br label %160

160:                                              ; preds = %159
  %161 = load i32, i32* %6, align 4
  %162 = add nsw i32 %161, 1
  store i32 %162, i32* %6, align 4
  br label %36

163:                                              ; preds = %158, %36
  %164 = load i32, i32* %4, align 4
  %165 = load i32, i32* %6, align 4
  %166 = sext i32 %165 to i64
  %167 = getelementptr inbounds [8 x [8 x i32]], [8 x [8 x i32]]* %3, i64 0, i64 %166
  %168 = load i32, i32* %7, align 4
  %169 = sext i32 %168 to i64
  %170 = getelementptr inbounds [8 x i32], [8 x i32]* %167, i64 0, i64 %169
  %171 = load i32, i32* %170, align 4
  %172 = icmp eq i32 %164, %171
  br i1 %172, label %173, label %187

173:                                              ; preds = %163
  %174 = load i32, i32* %5, align 4
  %175 = load i32, i32* %6, align 4
  %176 = sext i32 %175 to i64
  %177 = getelementptr inbounds [8 x [8 x i32]], [8 x [8 x i32]]* %3, i64 0, i64 %176
  %178 = load i32, i32* %7, align 4
  %179 = sext i32 %178 to i64
  %180 = getelementptr inbounds [8 x i32], [8 x i32]* %177, i64 0, i64 %179
  %181 = load i32, i32* %180, align 4
  %182 = icmp eq i32 %174, %181
  br i1 %182, label %183, label %187

183:                                              ; preds = %173
  %184 = load i32, i32* %6, align 4
  %185 = load i32, i32* %7, align 4
  %186 = call i32 (i8*, ...) @printf(i8* getelementptr inbounds ([6 x i8], [6 x i8]* @.str.2, i64 0, i64 0), i32 %184, i32 %185)
  br label %189

187:                                              ; preds = %173, %163
  %188 = call i32 (i8*, ...) @printf(i8* getelementptr inbounds ([4 x i8], [4 x i8]* @.str.3, i64 0, i64 0))
  br label %189

189:                                              ; preds = %187, %183
  ret void
}

declare dso_local i32 @__isoc99_scanf(i8*, ...) #1

declare dso_local i32 @printf(i8*, ...) #1


!llvm.module.flags = !{!0}
!llvm.ident = !{!1}

!0 = !{i32 1, !"wchar_size", i32 4}
!1 = !{!"clang version 10.0.0-4ubuntu1 "}
